target datalayout = "e-m:e-p270:32:32-p271:32:32-p272:64:64-i64:64-i128:128-f80:128-n8:16:32:64-S128"
target triple = "x86_64-pc-linux-gnu"

%union.SourceSpan = type { i64 }
%struct.Ast_ = type { %union.SourceSpan, i32, i8, %union.anon.62 }
%union.anon.62 = type { %struct.AstDocDirective_ }
%struct.AstDocDirective_ = type { i8, %union.anon.65 }
%union.anon.65 = type { %struct.anon.66 }
%struct.anon.66 = type { ptr, %union.SourceSpan, i8 }
%struct.Expr_ = type { ptr, %union.SourceSpan, i16, %union.anon.29 }
%union.anon.29 = type { %struct.ExprAnySwitch }
%struct.ExprAnySwitch = type { i8, %union.anon.31 }
%union.anon.31 = type { %struct.anon.32 }
%struct.anon.32 = type { ptr, %union.SourceSpan, ptr }
%struct.ExprConst = type { i16, %union.anon.38 }
%union.anon.38 = type { %struct.Int }
%struct.Int = type { %struct.Int128_, i32 }
%struct.Int128_ = type { i64, i64 }
%struct.anon.39 = type { ptr, i32 }
%struct.Float = type { double, i32 }
%struct.Decl_ = type { ptr, ptr, %union.SourceSpan, i64, %union.anon, i32, %union.anon.0, i64, ptr, ptr, ptr, %union.anon.1 }
%union.anon = type { ptr }
%union.anon.0 = type { i16 }
%union.anon.1 = type { %struct.FuncDecl }
%struct.FuncDecl = type { i32, [4 x i8], %struct.Signature_, i32, i32, %union.anon.8 }
%struct.Signature_ = type <{ %struct.CalleeAttributes, i16, i8, i32, i32, [4 x i8], ptr }>
%struct.CalleeAttributes = type { i8 }
%union.anon.8 = type { %struct.anon.9 }
%struct.anon.9 = type { i16, %union.anon.10 }
%union.anon.10 = type { ptr }

@.str.5 = private unnamed_addr constant [27 x i8] c"Expected a constant value.\00", align 1
@.str.6 = private unnamed_addr constant [3 x i8] c"] \00", align 1
@.str.7 = private unnamed_addr constant [4 x i8] c"%f\0A\00", align 1
@.str.8 = private unnamed_addr constant [5 x i8] c"true\00", align 1
@.str.9 = private unnamed_addr constant [6 x i8] c"false\00", align 1
@.str.10 = private unnamed_addr constant [6 x i8] c"%.*s\0A\00", align 1
@.str.11 = private unnamed_addr constant [4 x i8] c"%p\0A\00", align 1
@.str.12 = private unnamed_addr constant [29 x i8] c"Unsupported type for '$echo'\00", align 1

; Function Attrs: nounwind uwtable
define dso_local zeroext i1 @sema_analyse_ct_echo_stmt(ptr noundef %0, ptr noundef %1) #0 {
  %3 = alloca i1, align 1
  %4 = alloca ptr, align 8
  %5 = alloca ptr, align 8
  %6 = alloca ptr, align 8
  store ptr %0, ptr %4, align 8
  store ptr %1, ptr %5, align 8
  %7 = load ptr, ptr %5, align 8
  %8 = getelementptr inbounds %struct.Ast_, ptr %7, i32 0, i32 3
  %9 = load ptr, ptr %8, align 8
  store ptr %9, ptr %6, align 8
  %10 = load ptr, ptr %4, align 8
  %11 = load ptr, ptr %6, align 8
  %12 = call zeroext i1 @sema_analyse_expr(ptr noundef %10, ptr noundef %11)
  br i1 %12, label %14, label %13

13:                                               ; preds = %2
  store i1 false, ptr %3, align 1
  br label %96

14:                                               ; preds = %2
  %15 = load ptr, ptr %6, align 8
  %16 = getelementptr inbounds %struct.Expr_, ptr %15, i32 0, i32 2
  %17 = load i16, ptr %16, align 8
  %18 = and i16 %17, 255
  %19 = zext i16 %18 to i32
  %20 = icmp ne i32 %19, 14
  br i1 %20, label %21, label %26

21:                                               ; preds = %14
  %22 = load ptr, ptr %6, align 8
  %23 = getelementptr inbounds %struct.Expr_, ptr %22, i32 0, i32 1
  %24 = getelementptr inbounds %union.SourceSpan, ptr %23, i32 0, i32 0
  %25 = load i64, ptr %24, align 8
  call void (i64, ptr, ...) @sema_error_at(i64 %25, ptr noundef @.str.5)
  store i1 false, ptr %3, align 1
  br label %96

26:                                               ; preds = %14
  %27 = call i32 (ptr, ...) @printf(ptr noundef @.str.6)
  %28 = load ptr, ptr %6, align 8
  %29 = getelementptr inbounds %struct.Expr_, ptr %28, i32 0, i32 3
  %30 = load i16, ptr %29, align 8
  %31 = and i16 %30, 255
  %32 = zext i16 %31 to i32
  switch i32 %32, label %93 [
    i32 0, label %33
    i32 1, label %40
    i32 2, label %46
    i32 3, label %54
    i32 4, label %54
    i32 6, label %62
    i32 7, label %74
    i32 8, label %81
    i32 5, label %88
    i32 9, label %88
    i32 10, label %88
    i32 11, label %88
  ]

33:                                               ; preds = %26
  %34 = load ptr, ptr %6, align 8
  %35 = getelementptr inbounds %struct.Expr_, ptr %34, i32 0, i32 3
  %36 = getelementptr inbounds %struct.ExprConst, ptr %35, i32 0, i32 1
  %37 = getelementptr inbounds %struct.Float, ptr %36, i32 0, i32 0
  %38 = load double, ptr %37, align 8
  %39 = call i32 (ptr, ...) @printf(ptr noundef @.str.7, double noundef %38)
  br label %93

40:                                               ; preds = %26
  %41 = load ptr, ptr %6, align 8
  %42 = getelementptr inbounds %struct.Expr_, ptr %41, i32 0, i32 3
  %43 = getelementptr inbounds %struct.ExprConst, ptr %42, i32 0, i32 1
  %44 = call ptr @int_to_str(ptr noundef byval(%struct.Int) align 8 %43, i32 noundef 10)
  %45 = call i32 @puts(ptr noundef %44)
  br label %93

46:                                               ; preds = %26
  %47 = load ptr, ptr %6, align 8
  %48 = getelementptr inbounds %struct.Expr_, ptr %47, i32 0, i32 3
  %49 = getelementptr inbounds %struct.ExprConst, ptr %48, i32 0, i32 1
  %50 = load i8, ptr %49, align 8
  %51 = trunc i8 %50 to i1
  %52 = select i1 %51, ptr @.str.8, ptr @.str.9
  %53 = call i32 @puts(ptr noundef %52)
  br label %93

54:                                               ; preds = %26, %26
  %55 = load ptr, ptr %6, align 8
  %56 = getelementptr inbounds %struct.Expr_, ptr %55, i32 0, i32 3
  %57 = getelementptr inbounds %struct.ExprConst, ptr %56, i32 0, i32 1
  %58 = load ptr, ptr %57, align 8
  %59 = getelementptr inbounds %struct.Decl_, ptr %58, i32 0, i32 0
  %60 = load ptr, ptr %59, align 8
  %61 = call i32 @puts(ptr noundef %60)
  br label %93

62:                                               ; preds = %26
  %63 = load ptr, ptr %6, align 8
  %64 = getelementptr inbounds %struct.Expr_, ptr %63, i32 0, i32 3
  %65 = getelementptr inbounds %struct.ExprConst, ptr %64, i32 0, i32 1
  %66 = getelementptr inbounds %struct.anon.39, ptr %65, i32 0, i32 1
  %67 = load i32, ptr %66, align 8
  %68 = load ptr, ptr %6, align 8
  %69 = getelementptr inbounds %struct.Expr_, ptr %68, i32 0, i32 3
  %70 = getelementptr inbounds %struct.ExprConst, ptr %69, i32 0, i32 1
  %71 = getelementptr inbounds %struct.anon.39, ptr %70, i32 0, i32 0
  %72 = load ptr, ptr %71, align 8
  %73 = call i32 (ptr, ...) @printf(ptr noundef @.str.10, i32 noundef %67, ptr noundef %72)
  br label %93

74:                                               ; preds = %26
  %75 = load ptr, ptr %6, align 8
  %76 = getelementptr inbounds %struct.Expr_, ptr %75, i32 0, i32 3
  %77 = getelementptr inbounds %struct.ExprConst, ptr %76, i32 0, i32 1
  %78 = load i64, ptr %77, align 8
  %79 = inttoptr i64 %78 to ptr
  %80 = call i32 (ptr, ...) @printf(ptr noundef @.str.11, ptr noundef %79)
  br label %93

81:                                               ; preds = %26
  %82 = load ptr, ptr %6, align 8
  %83 = getelementptr inbounds %struct.Expr_, ptr %82, i32 0, i32 3
  %84 = getelementptr inbounds %struct.ExprConst, ptr %83, i32 0, i32 1
  %85 = load ptr, ptr %84, align 8
  %86 = call ptr @type_to_error_string(ptr noundef %85)
  %87 = call i32 @puts(ptr noundef %86)
  br label %93

88:                                               ; preds = %26, %26, %26, %26
  %89 = load ptr, ptr %6, align 8
  %90 = getelementptr inbounds %struct.Expr_, ptr %89, i32 0, i32 1
  %91 = getelementptr inbounds %union.SourceSpan, ptr %90, i32 0, i32 0
  %92 = load i64, ptr %91, align 8
  call void (i64, ptr, ...) @sema_error_at(i64 %92, ptr noundef @.str.12)
  br label %93

93:                                               ; preds = %88, %81, %74, %62, %54, %46, %40, %33, %26
  %94 = load ptr, ptr %5, align 8
  %95 = getelementptr inbounds %struct.Ast_, ptr %94, i32 0, i32 2
  store i8 24, ptr %95, align 4
  store i1 true, ptr %3, align 1
  br label %96

96:                                               ; preds = %93, %21, %13
  %97 = load i1, ptr %3, align 1
  ret i1 %97
}