; Function Attrs: nounwind uwtable
define dso_local noundef zeroext i1 @sema_analyse_ct_echo_stmt(ptr noundef %0, ptr nocapture noundef %1) local_unnamed_addr #0 {
  %3 = getelementptr inbounds i8, ptr %1, i64 16
  %4 = load ptr, ptr %3, align 8
  %5 = tail call zeroext i1 @sema_analyse_expr(ptr noundef %0, ptr noundef %4) #9
  br i1 %5, label %6, label %57

6:                                                ; preds = %2
  %7 = getelementptr inbounds i8, ptr %4, i64 16
  %8 = load i16, ptr %7, align 8
  %9 = and i16 %8, 255
  %.not = icmp eq i16 %9, 14
  br i1 %.not, label %13, label %10

10:                                               ; preds = %6
  %11 = getelementptr inbounds i8, ptr %4, i64 8
  %12 = load i64, ptr %11, align 8
  tail call void (i64, ptr, ...) @sema_error_at(i64 %12, ptr noundef nonnull @.str.5) #9
  br label %57

13:                                               ; preds = %6
  %14 = tail call i32 (ptr, ...) @printf(ptr noundef nonnull dereferenceable(1) @.str.6)
  %15 = getelementptr inbounds i8, ptr %4, i64 24
  %16 = load i16, ptr %15, align 8
  %trunc = trunc i16 %16 to i8
  switch i8 %trunc, label %55 [
    i8 0, label %17
    i8 1, label %21
    i8 2, label %25
    i8 3, label %31
    i8 4, label %31
    i8 6, label %36
    i8 7, label %42
    i8 8, label %47
    i8 5, label %52
    i8 9, label %52
    i8 10, label %52
    i8 11, label %52
  ]

17:                                               ; preds = %13
  %18 = getelementptr inbounds i8, ptr %4, i64 32
  %19 = load double, ptr %18, align 8
  %20 = tail call i32 (ptr, ...) @printf(ptr noundef nonnull dereferenceable(1) @.str.7, double noundef %19)
  br label %55

21:                                               ; preds = %13
  %22 = getelementptr inbounds i8, ptr %4, i64 32
  %23 = tail call ptr @int_to_str(ptr noundef nonnull byval(%struct.Int) align 8 %22, i32 noundef 10) #9
  %24 = tail call i32 @puts(ptr noundef nonnull dereferenceable(1) %23)
  br label %55

25:                                               ; preds = %13
  %26 = getelementptr inbounds i8, ptr %4, i64 32
  %27 = load i8, ptr %26, align 8
  %28 = trunc i8 %27 to i1
  %29 = select i1 %28, ptr @.str.8, ptr @.str.9
  %30 = tail call i32 @puts(ptr noundef nonnull dereferenceable(1) %29)
  br label %55

31:                                               ; preds = %13, %13
  %32 = getelementptr inbounds i8, ptr %4, i64 32
  %33 = load ptr, ptr %32, align 8
  %34 = load ptr, ptr %33, align 8
  %35 = tail call i32 @puts(ptr noundef nonnull dereferenceable(1) %34)
  br label %55

36:                                               ; preds = %13
  %37 = getelementptr inbounds i8, ptr %4, i64 32
  %38 = getelementptr inbounds i8, ptr %4, i64 40
  %39 = load i32, ptr %38, align 8
  %40 = load ptr, ptr %37, align 8
  %41 = tail call i32 (ptr, ...) @printf(ptr noundef nonnull dereferenceable(1) @.str.10, i32 noundef %39, ptr noundef %40)
  br label %55

42:                                               ; preds = %13
  %43 = getelementptr inbounds i8, ptr %4, i64 32
  %44 = load i64, ptr %43, align 8
  %45 = inttoptr i64 %44 to ptr
  %46 = tail call i32 (ptr, ...) @printf(ptr noundef nonnull dereferenceable(1) @.str.11, ptr noundef %45)
  br label %55

47:                                               ; preds = %13
  %48 = getelementptr inbounds i8, ptr %4, i64 32
  %49 = load ptr, ptr %48, align 8
  %50 = tail call ptr @type_to_error_string(ptr noundef %49) #9
  %51 = tail call i32 @puts(ptr noundef nonnull dereferenceable(1) %50)
  br label %55

52:                                               ; preds = %13, %13, %13, %13
  %53 = getelementptr inbounds i8, ptr %4, i64 8
  %54 = load i64, ptr %53, align 8
  tail call void (i64, ptr, ...) @sema_error_at(i64 %54, ptr noundef nonnull @.str.12) #9
  br label %55

55:                                               ; preds = %52, %47, %42, %36, %31, %25, %21, %17, %13
  %56 = getelementptr inbounds i8, ptr %1, i64 12
  store i8 24, ptr %56, align 4
  br label %57

57:                                               ; preds = %2, %55, %10
  %.0 = phi i1 [ false, %10 ], [ true, %55 ], [ false, %2 ]
  ret i1 %.0
}